target datalayout = "e-m:e-p270:32:32-p271:32:32-p272:64:64-i64:64-i128:128-f80:128-n8:16:32:64-S128"
target triple = "x86_64-pc-linux-gnu"

%"class.gmx::SimulationSignaller" = type { ptr, ptr, ptr, i8, i8, %"struct.std::array" }
%"struct.std::array" = type { [3 x float] }
%"class.gmx::SimulationSignal" = type { i8, i8, i8 }
%"struct.std::array.0" = type { [3 x %"class.gmx::SimulationSignal"] }

; Function Attrs: mustprogress nounwind uwtable
define linkonce_odr noundef nonnull align 4 dereferenceable(4) ptr @_ZNSt14__array_traitsIfLm3EE6_S_refERA3_Kfm(ptr noundef nonnull align 4 dereferenceable(12) %0, i64 noundef %1) #0 comdat align 2 {
  %3 = alloca ptr, align 8
  %4 = alloca i64, align 8
  store ptr %0, ptr %3, align 8, !tbaa !28
  store i64 %1, ptr %4, align 8, !tbaa !67
  %5 = load ptr, ptr %3, align 8, !tbaa !28
  %6 = load i64, ptr %4, align 8, !tbaa !67
  %7 = getelementptr inbounds nuw [3 x float], ptr %5, i64 0, i64 %6
  ret ptr %7
}

; Function Attrs: mustprogress nounwind uwtable
define linkonce_odr noundef nonnull align 1 dereferenceable(3) ptr @_ZNSt14__array_traitsIN3gmx16SimulationSignalELm3EE6_S_refERA3_KS1_m(ptr noundef nonnull align 1 dereferenceable(9) %0, i64 noundef %1) #0 comdat align 2 {
  %3 = alloca ptr, align 8
  %4 = alloca i64, align 8
  store ptr %0, ptr %3, align 8, !tbaa !26
  store i64 %1, ptr %4, align 8, !tbaa !67
  %5 = load ptr, ptr %3, align 8, !tbaa !26
  %6 = load i64, ptr %4, align 8, !tbaa !67
  %7 = getelementptr inbounds nuw [3 x %"class.gmx::SimulationSignal"], ptr %5, i64 0, i64 %6
  ret ptr %7
}

; Function Attrs: mustprogress nounwind uwtable
define linkonce_odr noundef nonnull align 4 dereferenceable(4) ptr @_ZNSt5arrayIfLm3EEixEm(ptr noundef nonnull align 4 dereferenceable(12) %0, i64 noundef %1) #0 comdat align 2 {
  %3 = alloca ptr, align 8
  %4 = alloca i64, align 8
  store ptr %0, ptr %3, align 8, !tbaa !34
  store i64 %1, ptr %4, align 8, !tbaa !67
  %5 = load ptr, ptr %3, align 8
  %6 = getelementptr inbounds nuw %"struct.std::array", ptr %5, i32 0, i32 0
  %7 = load i64, ptr %4, align 8, !tbaa !67
  %8 = call noundef nonnull align 4 dereferenceable(4) ptr @_ZNSt14__array_traitsIfLm3EE6_S_refERA3_Kfm(ptr noundef nonnull align 4 dereferenceable(12) %6, i64 noundef %7) #8
  ret ptr %8
}

; Function Attrs: mustprogress nounwind uwtable
define linkonce_odr noundef nonnull align 1 dereferenceable(3) ptr @_ZNSt5arrayIN3gmx16SimulationSignalELm3EEixEm(ptr noundef nonnull align 1 dereferenceable(9) %0, i64 noundef %1) #0 comdat align 2 {
  %3 = alloca ptr, align 8
  %4 = alloca i64, align 8
  store ptr %0, ptr %3, align 8, !tbaa !9
  store i64 %1, ptr %4, align 8, !tbaa !67
  %5 = load ptr, ptr %3, align 8
  %6 = getelementptr inbounds nuw %"struct.std::array.0", ptr %5, i32 0, i32 0
  %7 = load i64, ptr %4, align 8, !tbaa !67
  %8 = call noundef nonnull align 1 dereferenceable(3) ptr @_ZNSt14__array_traitsIN3gmx16SimulationSignalELm3EE6_S_refERA3_KS1_m(ptr noundef nonnull align 1 dereferenceable(9) %6, i64 noundef %7) #8
  ret ptr %8
}

; Function Attrs: mustprogress nounwind willreturn memory(none) uwtable
define linkonce_odr noundef i64 @_ZNKSt5arrayIN3gmx16SimulationSignalELm3EE4sizeEv(ptr noundef nonnull align 1 dereferenceable(9) %0) #4 comdat align 2 {
  %2 = alloca ptr, align 8
  store ptr %0, ptr %2, align 8, !tbaa !9
  ret i64 3
}

; Function Attrs: mustprogress nounwind uwtable
define void @_ZN3gmx19SimulationSignaller10setSignalsEv(ptr noundef nonnull align 8 dereferenceable(40) %0) #0 align 2 {
  %2 = alloca ptr, align 8
  %3 = alloca ptr, align 8
  %4 = alloca i64, align 8
  %5 = alloca i8, align 1
  store ptr %0, ptr %2, align 8, !tbaa !4
  %6 = load ptr, ptr %2, align 8
  %7 = getelementptr inbounds nuw %"class.gmx::SimulationSignaller", ptr %6, i32 0, i32 4
  %8 = load i8, ptr %7, align 1, !tbaa !25, !range !22, !noundef !23
  %9 = trunc i8 %8 to i1
  br i1 %9, label %11, label %10

10:                                               ; preds = %1
  br label %56

11:                                               ; preds = %1
  call void @llvm.lifetime.start.p0(i64 8, ptr %3) #8
  %12 = getelementptr inbounds nuw %"class.gmx::SimulationSignaller", ptr %6, i32 0, i32 0
  %13 = load ptr, ptr %12, align 8, !tbaa !17
  store ptr %13, ptr %3, align 8, !tbaa !9
  call void @llvm.lifetime.start.p0(i64 8, ptr %4) #8
  store i64 0, ptr %4, align 8, !tbaa !67
  br label %14

14:                                               ; preds = %52, %11
  %15 = load i64, ptr %4, align 8, !tbaa !67
  %16 = load ptr, ptr %3, align 8, !tbaa !9
  %17 = call noundef i64 @_ZNKSt5arrayIN3gmx16SimulationSignalELm3EE4sizeEv(ptr noundef nonnull align 1 dereferenceable(9) %16) #7
  %18 = icmp ult i64 %15, %17
  br i1 %18, label %20, label %19

19:                                               ; preds = %14
  call void @llvm.lifetime.end.p0(i64 8, ptr %4) #8
  br label %55

20:                                               ; preds = %14
  %21 = getelementptr inbounds nuw %"class.gmx::SimulationSignaller", ptr %6, i32 0, i32 3
  %22 = load i8, ptr %21, align 8, !tbaa !24, !range !22, !noundef !23
  %23 = trunc i8 %22 to i1
  br i1 %23, label %31, label %24

24:                                               ; preds = %20
  %25 = load ptr, ptr %3, align 8, !tbaa !9
  %26 = load i64, ptr %4, align 8, !tbaa !67
  %27 = call noundef nonnull align 1 dereferenceable(3) ptr @_ZNSt5arrayIN3gmx16SimulationSignalELm3EEixEm(ptr noundef nonnull align 1 dereferenceable(9) %25, i64 noundef %26) #8
  %28 = getelementptr inbounds nuw %"class.gmx::SimulationSignal", ptr %27, i32 0, i32 2
  %29 = load i8, ptr %28, align 1, !tbaa !69, !range !22, !noundef !23
  %30 = trunc i8 %29 to i1
  br i1 %30, label %31, label %51

31:                                               ; preds = %24, %20
  call void @llvm.lifetime.start.p0(i64 1, ptr %5) #8
  %32 = getelementptr inbounds nuw %"class.gmx::SimulationSignaller", ptr %6, i32 0, i32 5
  %33 = load i64, ptr %4, align 8, !tbaa !67
  %34 = call noundef nonnull align 4 dereferenceable(4) ptr @_ZNSt5arrayIfLm3EEixEm(ptr noundef nonnull align 4 dereferenceable(12) %32, i64 noundef %33) #8
  %35 = load float, ptr %34, align 4, !tbaa !30
  %36 = fptosi float %35 to i8
  store i8 %36, ptr %5, align 1, !tbaa !70
  %37 = load i8, ptr %5, align 1, !tbaa !70
  %38 = sext i8 %37 to i32
  %39 = icmp ne i32 %38, 0
  br i1 %39, label %40, label %46

40:                                               ; preds = %31
  %41 = load i8, ptr %5, align 1, !tbaa !70
  %42 = load ptr, ptr %3, align 8, !tbaa !9
  %43 = load i64, ptr %4, align 8, !tbaa !67
  %44 = call noundef nonnull align 1 dereferenceable(3) ptr @_ZNSt5arrayIN3gmx16SimulationSignalELm3EEixEm(ptr noundef nonnull align 1 dereferenceable(9) %42, i64 noundef %43) #8
  %45 = getelementptr inbounds nuw %"class.gmx::SimulationSignal", ptr %44, i32 0, i32 1
  store i8 %41, ptr %45, align 1, !tbaa !71
  br label %46

46:                                               ; preds = %40, %31
  %47 = load ptr, ptr %3, align 8, !tbaa !9
  %48 = load i64, ptr %4, align 8, !tbaa !67
  %49 = call noundef nonnull align 1 dereferenceable(3) ptr @_ZNSt5arrayIN3gmx16SimulationSignalELm3EEixEm(ptr noundef nonnull align 1 dereferenceable(9) %47, i64 noundef %48) #8
  %50 = getelementptr inbounds nuw %"class.gmx::SimulationSignal", ptr %49, i32 0, i32 0
  store i8 0, ptr %50, align 1, !tbaa !39
  call void @llvm.lifetime.end.p0(i64 1, ptr %5) #8
  br label %51

51:                                               ; preds = %46, %24
  br label %52

52:                                               ; preds = %51
  %53 = load i64, ptr %4, align 8, !tbaa !67
  %54 = add i64 %53, 1
  store i64 %54, ptr %4, align 8, !tbaa !67
  br label %14, !llvm.loop !72

55:                                               ; preds = %19
  call void @llvm.lifetime.end.p0(i64 8, ptr %3) #8
  br label %56

56:                                               ; preds = %55, %10
  ret void
}