; Function Attrs: mustprogress nofree norecurse nosync nounwind memory(readwrite, inaccessiblemem: none) uwtable
define void @_ZN3gmx19SimulationSignaller10setSignalsEv(ptr noundef nonnull readonly align 8 captures(none) dereferenceable(40) %0) local_unnamed_addr #5 align 2 {
  %2 = getelementptr inbounds nuw i8, ptr %0, i64 25
  %3 = load i8, ptr %2, align 1, !tbaa !17, !range !18, !noundef !19
  %4 = trunc nuw i8 %3 to i1
  br i1 %4, label %5, label %.loopexit

5:                                                ; preds = %1
  %6 = load ptr, ptr %0, align 8, !tbaa !4
  %7 = getelementptr inbounds nuw i8, ptr %0, i64 24
  %8 = load i8, ptr %7, align 8, !tbaa !16, !range !18, !noundef !19
  %9 = trunc nuw i8 %8 to i1
  %10 = getelementptr inbounds nuw i8, ptr %0, i64 28
  br i1 %9, label %.split.us, label %.split

.split.us:                                        ; preds = %5, %16
  %.012.us = phi i64 [ %18, %16 ], [ 0, %5 ]
  %11 = getelementptr inbounds nuw [3 x float], ptr %10, i64 0, i64 %.012.us
  %12 = load float, ptr %11, align 4, !tbaa !22
  %13 = fptosi float %12 to i8
  %.not.us = icmp eq i8 %13, 0
  br i1 %.not.us, label %16, label %14

14:                                               ; preds = %.split.us
  %15 = getelementptr inbounds nuw [3 x %"class.gmx::SimulationSignal"], ptr %6, i64 0, i64 %.012.us, i32 1
  store i8 %13, ptr %15, align 1, !tbaa !48
  br label %16

16:                                               ; preds = %14, %.split.us
  %17 = getelementptr inbounds nuw [3 x %"class.gmx::SimulationSignal"], ptr %6, i64 0, i64 %.012.us
  store i8 0, ptr %17, align 1, !tbaa !20
  %18 = add nuw nsw i64 %.012.us, 1
  %exitcond14.not = icmp eq i64 %18, 3
  br i1 %exitcond14.not, label %.loopexit, label %.split.us, !llvm.loop !49

.split:                                           ; preds = %5, %30
  %.012 = phi i64 [ %31, %30 ], [ 0, %5 ]
  %19 = getelementptr inbounds nuw [3 x %"class.gmx::SimulationSignal"], ptr %6, i64 0, i64 %.012, i32 2
  %20 = load i8, ptr %19, align 1, !tbaa !50, !range !18, !noundef !19
  %21 = trunc nuw i8 %20 to i1
  br i1 %21, label %22, label %30

22:                                               ; preds = %.split
  %23 = getelementptr inbounds nuw [3 x float], ptr %10, i64 0, i64 %.012
  %24 = load float, ptr %23, align 4, !tbaa !22
  %25 = fptosi float %24 to i8
  %.not = icmp eq i8 %25, 0
  br i1 %.not, label %28, label %26

26:                                               ; preds = %22
  %27 = getelementptr inbounds nuw [3 x %"class.gmx::SimulationSignal"], ptr %6, i64 0, i64 %.012, i32 1
  store i8 %25, ptr %27, align 1, !tbaa !48
  br label %28

28:                                               ; preds = %26, %22
  %29 = getelementptr inbounds nuw [3 x %"class.gmx::SimulationSignal"], ptr %6, i64 0, i64 %.012
  store i8 0, ptr %29, align 1, !tbaa !20
  br label %30

30:                                               ; preds = %.split, %28
  %31 = add nuw nsw i64 %.012, 1
  %exitcond.not = icmp eq i64 %31, 3
  br i1 %exitcond.not, label %.loopexit, label %.split, !llvm.loop !49

.loopexit:                                        ; preds = %30, %16, %1
  ret void
}